target datalayout = "e-m:e-p270:32:32-p271:32:32-p272:64:64-i64:64-i128:128-f80:128-n8:16:32:64-S128"
target triple = "x86_64-pc-linux-gnu"

%struct.mbedtls_dhm_context = type { %struct.mbedtls_mpi, %struct.mbedtls_mpi, %struct.mbedtls_mpi, %struct.mbedtls_mpi, %struct.mbedtls_mpi, %struct.mbedtls_mpi, %struct.mbedtls_mpi, %struct.mbedtls_mpi, %struct.mbedtls_mpi, %struct.mbedtls_mpi }
%struct.mbedtls_mpi = type { ptr, i16, i16 }

@.str = private unnamed_addr constant [117 x i8] c"generated/home/dtcxzyw/WorkSpace/Projects/compilers/llvm-opt-benchmark/bench/lief/bench_build/mbed_src/library/dhm.c\00", align 1

; Function Attrs: inlinehint nounwind uwtable
define internal i32 @mbedtls_error_add(i32 noundef %0, i32 noundef %1, ptr noundef %2, i32 noundef %3) #4 {
  %5 = alloca i32, align 4
  %6 = alloca i32, align 4
  %7 = alloca ptr, align 8
  %8 = alloca i32, align 4
  store i32 %0, ptr %5, align 4, !tbaa !8
  store i32 %1, ptr %6, align 4, !tbaa !8
  store ptr %2, ptr %7, align 8, !tbaa !15
  store i32 %3, ptr %8, align 4, !tbaa !8
  %9 = load i32, ptr %5, align 4, !tbaa !8
  %10 = load i32, ptr %6, align 4, !tbaa !8
  %11 = add nsw i32 %9, %10
  ret i32 %11
}

; Function Attrs: nounwind uwtable
define hidden i64 @mbedtls_dhm_get_len(ptr noundef %0) #0 {
  %2 = alloca ptr, align 8
  store ptr %0, ptr %2, align 8, !tbaa !3
  %3 = load ptr, ptr %2, align 8, !tbaa !3
  %4 = getelementptr inbounds nuw %struct.mbedtls_dhm_context, ptr %3, i32 0, i32 0
  %5 = call i64 @mbedtls_mpi_size(ptr noundef %4)
  ret i64 %5
}

; Function Attrs: nounwind uwtable
define hidden i32 @mbedtls_dhm_make_public(ptr noundef %0, i32 noundef %1, ptr noundef %2, i64 noundef %3, ptr noundef %4, ptr noundef %5) #0 {
  %7 = alloca i32, align 4
  %8 = alloca ptr, align 8
  %9 = alloca i32, align 4
  %10 = alloca ptr, align 8
  %11 = alloca i64, align 8
  %12 = alloca ptr, align 8
  %13 = alloca ptr, align 8
  %14 = alloca i32, align 4
  %15 = alloca i32, align 4
  store ptr %0, ptr %8, align 8, !tbaa !3
  store i32 %1, ptr %9, align 4, !tbaa !8
  store ptr %2, ptr %10, align 8, !tbaa !15
  store i64 %3, ptr %11, align 8, !tbaa !20
  store ptr %4, ptr %12, align 8, !tbaa !19
  store ptr %5, ptr %13, align 8, !tbaa !19
  call void @llvm.lifetime.start.p0(i64 4, ptr %14) #10
  %16 = load i64, ptr %11, align 8, !tbaa !20
  %17 = icmp ult i64 %16, 1
  br i1 %17, label %23, label %18

18:                                               ; preds = %6
  %19 = load i64, ptr %11, align 8, !tbaa !20
  %20 = load ptr, ptr %8, align 8, !tbaa !3
  %21 = call i64 @mbedtls_dhm_get_len(ptr noundef %20)
  %22 = icmp ugt i64 %19, %21
  br i1 %22, label %23, label %24

23:                                               ; preds = %18, %6
  store i32 -12416, ptr %7, align 4
  store i32 1, ptr %15, align 4
  br label %60

24:                                               ; preds = %18
  %25 = load ptr, ptr %8, align 8, !tbaa !3
  %26 = load i32, ptr %9, align 4, !tbaa !8
  %27 = load ptr, ptr %12, align 8, !tbaa !19
  %28 = load ptr, ptr %13, align 8, !tbaa !19
  %29 = call i32 @dhm_make_common(ptr noundef %25, i32 noundef %26, ptr noundef %27, ptr noundef %28)
  store i32 %29, ptr %14, align 4, !tbaa !8
  %30 = load i32, ptr %14, align 4, !tbaa !8
  %31 = icmp eq i32 %30, -12672
  br i1 %31, label %32, label %33

32:                                               ; preds = %24
  store i32 -12928, ptr %7, align 4
  store i32 1, ptr %15, align 4
  br label %60

33:                                               ; preds = %24
  %34 = load i32, ptr %14, align 4, !tbaa !8
  %35 = icmp ne i32 %34, 0
  br i1 %35, label %36, label %37

36:                                               ; preds = %33
  br label %49

37:                                               ; preds = %33
  br label %38

38:                                               ; preds = %37
  %39 = load ptr, ptr %8, align 8, !tbaa !3
  %40 = getelementptr inbounds nuw %struct.mbedtls_dhm_context, ptr %39, i32 0, i32 3
  %41 = load ptr, ptr %10, align 8, !tbaa !15
  %42 = load i64, ptr %11, align 8, !tbaa !20
  %43 = call i32 @mbedtls_mpi_write_binary(ptr noundef %40, ptr noundef %41, i64 noundef %42)
  store i32 %43, ptr %14, align 4, !tbaa !8
  %44 = icmp ne i32 %43, 0
  br i1 %44, label %45, label %46

45:                                               ; preds = %38
  br label %49

46:                                               ; preds = %38
  br label %47

47:                                               ; preds = %46
  br label %48

48:                                               ; preds = %47
  br label %49

49:                                               ; preds = %48, %45, %36
  %50 = load i32, ptr %14, align 4, !tbaa !8
  %51 = icmp ne i32 %50, 0
  br i1 %51, label %52, label %58

52:                                               ; preds = %49
  %53 = load i32, ptr %14, align 4, !tbaa !8
  %54 = icmp sgt i32 %53, -128
  br i1 %54, label %55, label %58

55:                                               ; preds = %52
  %56 = load i32, ptr %14, align 4, !tbaa !8
  %57 = call i32 @mbedtls_error_add(i32 noundef -12928, i32 noundef %56, ptr noundef @.str, i32 noundef 331)
  store i32 %57, ptr %14, align 4, !tbaa !8
  br label %58

58:                                               ; preds = %55, %52, %49
  %59 = load i32, ptr %14, align 4, !tbaa !8
  store i32 %59, ptr %7, align 4
  store i32 1, ptr %15, align 4
  br label %60

60:                                               ; preds = %58, %32, %23
  call void @llvm.lifetime.end.p0(i64 4, ptr %14) #10
  %61 = load i32, ptr %7, align 4
  ret i32 %61
}