; Function Attrs: nounwind uwtable
define hidden range(i32 -2147483648, 2147470720) i32 @mbedtls_dhm_make_public(ptr noundef %0, i32 noundef %1, ptr noundef %2, i64 noundef %3, ptr noundef %4, ptr noundef %5) local_unnamed_addr #2 {
  %7 = icmp eq i64 %3, 0
  br i1 %7, label %20, label %8

8:                                                ; preds = %6
  %9 = tail call i64 @mbedtls_mpi_size(ptr noundef %0) #10
  %10 = icmp ugt i64 %3, %9
  br i1 %10, label %20, label %11

11:                                               ; preds = %8
  %12 = tail call fastcc i32 @dhm_make_common(ptr noundef %0, i32 noundef %1, ptr noundef %4, ptr noundef %5)
  switch i32 %12, label %16 [
    i32 -12672, label %20
    i32 0, label %13
  ]

13:                                               ; preds = %11
  %14 = getelementptr inbounds nuw i8, ptr %0, i64 48
  %15 = tail call i32 @mbedtls_mpi_write_binary(ptr noundef nonnull %14, ptr noundef %2, i64 noundef %3) #10
  br label %16

16:                                               ; preds = %11, %13
  %.0 = phi i32 [ %15, %13 ], [ %12, %11 ]
  %17 = icmp ne i32 %.0, 0
  %18 = icmp sgt i32 %.0, -128
  %or.cond = and i1 %17, %18
  %19 = add nsw i32 %.0, -12928
  %spec.select = select i1 %or.cond, i32 %19, i32 %.0
  br label %20

20:                                               ; preds = %16, %11, %6, %8
  %.017 = phi i32 [ -12416, %8 ], [ -12416, %6 ], [ -12928, %11 ], [ %spec.select, %16 ]
  ret i32 %.017
}